; ModuleID = '29/1730.c'
source_filename = "29/1730.c"
target datalayout = "e-m:e-p270:32:32-p271:32:32-p272:64:64-i64:64-f80:128-n8:16:32:64-S128"
target triple = "x86_64-pc-linux-gnu"

@.str = private unnamed_addr constant [3 x i8] c"%d\00", align 1
@.str.1 = private unnamed_addr constant [7 x i8] c"%.3lf\0A\00", align 1

; Function Attrs: noinline nounwind uwtable
define dso_local i32 @main() #0 {
  %1 = alloca i32, align 4
  %2 = alloca i32, align 4
  %3 = alloca i32, align 4
  %4 = alloca [100 x i32], align 16
  %5 = alloca float, align 4
  %6 = alloca i32, align 4
  %7 = alloca i32, align 4
  store i32 0, i32* %1, align 4
  %8 = bitcast [100 x i32]* %4 to i8*
  call void @llvm.memset.p0i8.i64(i8* align 16 %8, i8 0, i64 400, i1 false)
  %9 = bitcast i8* %8 to <{ i32, i32, [98 x i32] }>*
  %10 = getelementptr inbounds <{ i32, i32, [98 x i32] }>, <{ i32, i32, [98 x i32] }>* %9, i32 0, i32 0
  store i32 1, i32* %10, align 16
  %11 = getelementptr inbounds <{ i32, i32, [98 x i32] }>, <{ i32, i32, [98 x i32] }>* %9, i32 0, i32 1
  store i32 2, i32* %11, align 4
  store float 2.000000e+00, float* %5, align 4
  %12 = call i32 (i8*, ...) @__isoc99_scanf(i8* getelementptr inbounds ([3 x i8], [3 x i8]* @.str, i64 0, i64 0), i32* %2)
  store i32 0, i32* %6, align 4
  br label %13

13:                                               ; preds = %77, %0
  %14 = load i32, i32* %6, align 4
  %15 = load i32, i32* %2, align 4
  %16 = icmp slt i32 %14, %15
  br i1 %16, label %17, label %80

17:                                               ; preds = %13
  store float 2.000000e+00, float* %5, align 4
  %18 = call i32 (i8*, ...) @__isoc99_scanf(i8* getelementptr inbounds ([3 x i8], [3 x i8]* @.str, i64 0, i64 0), i32* %3)
  %19 = load i32, i32* %3, align 4
  %20 = sext i32 %19 to i64
  %21 = getelementptr inbounds [100 x i32], [100 x i32]* %4, i64 0, i64 %20
  %22 = load i32, i32* %21, align 4
  %23 = icmp eq i32 %22, 0
  br i1 %23, label %24, label %48

24:                                               ; preds = %17
  store i32 2, i32* %7, align 4
  br label %25

25:                                               ; preds = %44, %24
  %26 = load i32, i32* %7, align 4
  %27 = load i32, i32* %3, align 4
  %28 = icmp sle i32 %26, %27
  br i1 %28, label %29, label %47

29:                                               ; preds = %25
  %30 = load i32, i32* %7, align 4
  %31 = sub nsw i32 %30, 1
  %32 = sext i32 %31 to i64
  %33 = getelementptr inbounds [100 x i32], [100 x i32]* %4, i64 0, i64 %32
  %34 = load i32, i32* %33, align 4
  %35 = load i32, i32* %7, align 4
  %36 = sub nsw i32 %35, 2
  %37 = sext i32 %36 to i64
  %38 = getelementptr inbounds [100 x i32], [100 x i32]* %4, i64 0, i64 %37
  %39 = load i32, i32* %38, align 4
  %40 = add nsw i32 %34, %39
  %41 = load i32, i32* %7, align 4
  %42 = sext i32 %41 to i64
  %43 = getelementptr inbounds [100 x i32], [100 x i32]* %4, i64 0, i64 %42
  store i32 %40, i32* %43, align 4
  br label %44

44:                                               ; preds = %29
  %45 = load i32, i32* %7, align 4
  %46 = add nsw i32 %45, 1
  store i32 %46, i32* %7, align 4
  br label %25

47:                                               ; preds = %25
  br label %48

48:                                               ; preds = %47, %17
  store i32 1, i32* %7, align 4
  br label %49

49:                                               ; preds = %70, %48
  %50 = load i32, i32* %7, align 4
  %51 = load i32, i32* %3, align 4
  %52 = icmp slt i32 %50, %51
  br i1 %52, label %53, label %73

53:                                               ; preds = %49
  %54 = load i32, i32* %7, align 4
  %55 = add nsw i32 %54, 1
  %56 = sext i32 %55 to i64
  %57 = getelementptr inbounds [100 x i32], [100 x i32]* %4, i64 0, i64 %56
  %58 = load i32, i32* %57, align 4
  %59 = sitofp i32 %58 to double
  %60 = load i32, i32* %7, align 4
  %61 = sext i32 %60 to i64
  %62 = getelementptr inbounds [100 x i32], [100 x i32]* %4, i64 0, i64 %61
  %63 = load i32, i32* %62, align 4
  %64 = sitofp i32 %63 to double
  %65 = fdiv double %59, %64
  %66 = load float, float* %5, align 4
  %67 = fpext float %66 to double
  %68 = fadd double %67, %65
  %69 = fptrunc double %68 to float
  store float %69, float* %5, align 4
  br label %70

70:                                               ; preds = %53
  %71 = load i32, i32* %7, align 4
  %72 = add nsw i32 %71, 1
  store i32 %72, i32* %7, align 4
  br label %49

73:                                               ; preds = %49
  %74 = load float, float* %5, align 4
  %75 = fpext float %74 to double
  %76 = call i32 (i8*, ...) @printf(i8* getelementptr inbounds ([7 x i8], [7 x i8]* @.str.1, i64 0, i64 0), double %75)
  br label %77

77:                                               ; preds = %73
  %78 = load i32, i32* %6, align 4
  %79 = add nsw i32 %78, 1
  store i32 %79, i32* %6, align 4
  br label %13

80:                                               ; preds = %13
  ret i32 0
}

; Function Attrs: argmemonly nounwind willreturn
declare void @llvm.memset.p0i8.i64(i8* nocapture writeonly, i8, i64, i1 immarg) #1

declare dso_local i32 @__isoc99_scanf(i8*, ...) #2

declare dso_local i32 @printf(i8*, ...) #2


!llvm.module.flags = !{!0}
!llvm.ident = !{!1}

!0 = !{i32 1, !"wchar_size", i32 4}
!1 = !{!"clang version 10.0.0-4ubuntu1 "}
